; ModuleID = 'source-C-CXX/25/1076.c'
source_filename = "source-C-CXX/25/1076.c"
target datalayout = "e-m:e-p270:32:32-p271:32:32-p272:64:64-i64:64-f80:128-n8:16:32:64-S128"
target triple = "x86_64-pc-linux-gnu"

; Function Attrs: nounwind sspstrong uwtable
define dso_local i32 @main() local_unnamed_addr #0 {
  %1 = alloca [100 x i8], align 16
  %2 = getelementptr inbounds [100 x i8], [100 x i8]* %1, i64 0, i64 0
  call void @llvm.lifetime.start.p0i8(i64 100, i8* nonnull %2) #5
  %3 = call i32 (i8*, ...) bitcast (i32 (...)* @gets to i32 (i8*, ...)*)(i8* nonnull %2) #5
  %4 = call i64 @strlen(i8* noundef nonnull %2) #6
  %5 = trunc i64 %4 to i32
  %6 = add i32 %5, -1
  %7 = icmp sgt i32 %5, 1
  br i1 %7, label %8, label %29

8:                                                ; preds = %0
  %9 = zext i32 %6 to i64
  br label %10

10:                                               ; preds = %8, %26
  %11 = phi i64 [ 0, %8 ], [ %27, %26 ]
  %12 = getelementptr inbounds [100 x i8], [100 x i8]* %1, i64 0, i64 %11
  %13 = load i8, i8* %12, align 1, !tbaa !5
  %14 = icmp eq i8 %13, 32
  br i1 %14, label %19, label %15

15:                                               ; preds = %10
  %16 = sext i8 %13 to i32
  %17 = call i32 @putchar(i32 %16)
  %18 = add nuw nsw i64 %11, 1
  br label %26

19:                                               ; preds = %10
  %20 = add nuw nsw i64 %11, 1
  %21 = getelementptr inbounds [100 x i8], [100 x i8]* %1, i64 0, i64 %20
  %22 = load i8, i8* %21, align 1, !tbaa !5
  %23 = icmp eq i8 %22, 32
  br i1 %23, label %26, label %24

24:                                               ; preds = %19
  %25 = call i32 @putchar(i32 32)
  br label %26

26:                                               ; preds = %15, %24, %19
  %27 = phi i64 [ %18, %15 ], [ %20, %24 ], [ %20, %19 ]
  %28 = icmp eq i64 %27, %9
  br i1 %28, label %29, label %10, !llvm.loop !8

29:                                               ; preds = %26, %0
  %30 = sext i32 %6 to i64
  %31 = getelementptr inbounds [100 x i8], [100 x i8]* %1, i64 0, i64 %30
  %32 = load i8, i8* %31, align 1, !tbaa !5
  %33 = sext i8 %32 to i32
  %34 = call i32 @putchar(i32 %33)
  call void @llvm.lifetime.end.p0i8(i64 100, i8* nonnull %2) #5
  ret i32 0
}

; Function Attrs: argmemonly mustprogress nofree nosync nounwind willreturn
declare void @llvm.lifetime.start.p0i8(i64 immarg, i8* nocapture) #1

declare i32 @gets(...) local_unnamed_addr #2

; Function Attrs: argmemonly mustprogress nofree nounwind readonly willreturn
declare i64 @strlen(i8* nocapture) local_unnamed_addr #3

; Function Attrs: argmemonly mustprogress nofree nosync nounwind willreturn
declare void @llvm.lifetime.end.p0i8(i64 immarg, i8* nocapture) #1

; Function Attrs: nofree nounwind
declare noundef i32 @putchar(i32 noundef) local_unnamed_addr #4


!llvm.module.flags = !{!0, !1, !2, !3}
!llvm.ident = !{!4}

!0 = !{i32 1, !"wchar_size", i32 4}
!1 = !{i32 7, !"PIC Level", i32 2}
!2 = !{i32 7, !"PIE Level", i32 2}
!3 = !{i32 7, !"uwtable", i32 1}
!4 = !{!"clang version 13.0.0"}
!5 = !{!6, !6, i64 0}
!6 = !{!"omnipotent char", !7, i64 0}
!7 = !{!"Simple C/C++ TBAA"}
!8 = distinct !{!8, !9}
!9 = !{!"llvm.loop.mustprogress"}
